; Function Attrs: mustprogress uwtable
define dso_local noundef i64 @_ZNK4onnx26TensorShapeProto_Dimension12ByteSizeLongEv(ptr noundef nonnull align 8 dereferenceable(48) %0) unnamed_addr #3 align 2 {
  %2 = getelementptr inbounds nuw i8, ptr %0, i64 16
  %3 = load i32, ptr %2, align 8, !tbaa !50
  %4 = and i32 %3, 1
  %.not = icmp eq i32 %4, 0
  br i1 %.not, label %20, label %5

5:                                                ; preds = %1
  %6 = getelementptr inbounds nuw i8, ptr %0, i64 24
  %7 = load ptr, ptr %6, align 8, !tbaa !12
  %8 = getelementptr inbounds nuw i8, ptr %7, i64 8
  %9 = load i64, ptr %8, align 8, !tbaa !96
  %10 = trunc i64 %9 to i32
  %11 = or i32 %10, 1
  %12 = tail call range(i32 0, 33) i32 @llvm.ctlz.i32(i32 %11, i1 true)
  %13 = xor i32 %12, 31
  %14 = mul nuw nsw i32 %13, 9
  %15 = add nuw nsw i32 %14, 73
  %16 = lshr i32 %15, 6
  %17 = zext nneg i32 %16 to i64
  %18 = add i64 %9, 1
  %19 = add i64 %18, %17
  br label %20

20:                                               ; preds = %5, %1
  %.09 = phi i64 [ %19, %5 ], [ 0, %1 ]
  %21 = getelementptr inbounds nuw i8, ptr %0, i64 40
  %22 = load i32, ptr %21, align 8, !tbaa !50
  switch i32 %22, label %50 [
    i32 1, label %23
    i32 2, label %34
  ]

23:                                               ; preds = %20
  %24 = getelementptr inbounds nuw i8, ptr %0, i64 32
  %25 = load i64, ptr %24, align 8
  %26 = or i64 %25, 1
  %27 = tail call range(i64 0, 65) i64 @llvm.ctlz.i64(i64 %26, i1 true)
  %28 = xor i64 %27, 63
  %29 = mul nuw nsw i64 %28, 9
  %30 = add nuw nsw i64 %29, 73
  %31 = lshr i64 %30, 6
  %32 = add i64 %.09, 1
  %33 = add i64 %32, %31
  br label %50

34:                                               ; preds = %20
  %35 = getelementptr inbounds nuw i8, ptr %0, i64 32
  %36 = load ptr, ptr %35, align 8
  %37 = getelementptr inbounds nuw i8, ptr %36, i64 8
  %38 = load i64, ptr %37, align 8, !tbaa !96
  %39 = trunc i64 %38 to i32
  %40 = or i32 %39, 1
  %41 = tail call range(i32 0, 33) i32 @llvm.ctlz.i32(i32 %40, i1 true)
  %42 = xor i32 %41, 31
  %43 = mul nuw nsw i32 %42, 9
  %44 = add nuw nsw i32 %43, 73
  %45 = lshr i32 %44, 6
  %46 = zext nneg i32 %45 to i64
  %47 = add i64 %.09, 1
  %48 = add i64 %47, %38
  %49 = add i64 %48, %46
  br label %50

50:                                               ; preds = %34, %23, %20
  %.1 = phi i64 [ %.09, %20 ], [ %49, %34 ], [ %33, %23 ]
  %51 = getelementptr inbounds nuw i8, ptr %0, i64 8
  %52 = load ptr, ptr %51, align 8, !tbaa !4
  %53 = ptrtoint ptr %52 to i64
  %54 = and i64 %53, 1
  %.not11 = icmp eq i64 %54, 0
  br i1 %.not11, label %58, label %55, !prof !11

55:                                               ; preds = %50
  %56 = getelementptr inbounds nuw i8, ptr %0, i64 20
  %57 = tail call noundef i64 @_ZN6google8protobuf8internal24ComputeUnknownFieldsSizeERKNS1_16InternalMetadataEmPNS1_10CachedSizeE(ptr noundef nonnull align 8 dereferenceable(8) %51, i64 noundef %.1, ptr noundef nonnull %56)
  br label %61

58:                                               ; preds = %50
  %59 = trunc i64 %.1 to i32
  %60 = getelementptr inbounds nuw i8, ptr %0, i64 20
  store atomic i32 %59, ptr %60 monotonic, align 4
  br label %61

61:                                               ; preds = %58, %55
  %.0 = phi i64 [ %57, %55 ], [ %.1, %58 ]
  ret i64 %.0
}